target datalayout = "e-m:e-p270:32:32-p271:32:32-p272:64:64-i64:64-i128:128-f80:128-n8:16:32:64-S128"
target triple = "x86_64-pc-linux-gnu"

%struct._zend_executor_globals = type { %struct._zval_struct, %struct._zval_struct, [32 x ptr], ptr, ptr, %struct._zend_array, %struct._zend_array, ptr, i32, i32, ptr, ptr, ptr, ptr, ptr, ptr, i64, ptr, ptr, i32, i32, i64, i32, i32, i32, i8, i8, %struct.zend_atomic_bool_s, %struct.zend_atomic_bool_s, ptr, i64, ptr, ptr, %struct._zend_array, %struct._zend_array, i32, i8, %struct._zval_struct, %struct._zval_struct, %struct._zend_stack, %struct._zend_stack, %struct._zend_stack, ptr, i32, i32, i64, ptr, ptr, ptr, %struct._zend_objects_store, ptr, ptr, ptr, [3 x %struct._zend_op], ptr, i8, i8, i64, i32, i32, ptr, [16 x %struct._HashTableIterator], ptr, %union._zend_function, %struct._zend_op, %struct._zend_array, i64, %struct.zend_get_gc_buffer, ptr, ptr, ptr, i64, i8, i32, ptr, ptr, i64, %struct._zend_call_stack, i64, i64, [6 x ptr] }
%struct.zend_atomic_bool_s = type { i8 }
%struct._zval_struct = type { %union._zend_value, %union.anon, %union.anon.2 }
%union._zend_value = type { i64 }
%union.anon = type { i32 }
%union.anon.2 = type { i32 }
%struct._zend_stack = type { i32, i32, i32, ptr }
%struct._zend_objects_store = type { ptr, i32, i32, i32 }
%struct._HashTableIterator = type { ptr, i32, i32 }
%union._zend_function = type { %struct._zend_op_array }
%struct._zend_op_array = type { i8, [3 x i8], i32, ptr, ptr, ptr, i32, i32, ptr, ptr, ptr, ptr, i32, i32, i32, i32, ptr, ptr, ptr, ptr, ptr, i32, i32, ptr, ptr, ptr, i32, i32, i32, i32, ptr, ptr, [6 x ptr] }
%struct._zend_op = type { ptr, %union._znode_op, %union._znode_op, %union._znode_op, i32, i32, i8, i8, i8, i8 }
%union._znode_op = type { i32 }
%struct._zend_array = type { %struct._zend_refcounted_h, %union.anon.4, i32, %union.anon.6, i32, i32, i32, i32, i64, ptr }
%struct._zend_refcounted_h = type { i32, %union.anon.3 }
%union.anon.3 = type { i32 }
%union.anon.4 = type { i32 }
%union.anon.6 = type { ptr }
%struct.zend_get_gc_buffer = type { ptr, ptr, ptr }
%struct._zend_call_stack = type { ptr, i64 }
%struct._zend_execute_data = type { ptr, ptr, ptr, ptr, %struct._zval_struct, ptr, ptr, ptr, ptr }
%struct._spl_fixedarray_object = type { %struct._spl_fixedarray, ptr, %struct._zend_object }
%struct._spl_fixedarray = type { i64, ptr, i64 }
%struct._zend_object = type { %struct._zend_refcounted_h, i32, ptr, ptr, ptr, [1 x %struct._zval_struct] }
%struct.anon.0 = type { i8, i8, %union.anon.1 }
%union.anon.1 = type { i16 }
%struct._zend_reference = type { %struct._zend_refcounted_h, %struct._zval_struct, %union.zend_property_info_source_list }
%union.zend_property_info_source_list = type { ptr }

@executor_globals = external global %struct._zend_executor_globals, align 8
@.str.7 = private unnamed_addr constant [2 x i8] c"z\00", align 1
@.str.9 = private unnamed_addr constant [44 x i8] c"[] operator not supported for SplFixedArray\00", align 1
@spl_ce_OutOfBoundsException = external global ptr, align 8
@.str.10 = private unnamed_addr constant [30 x i8] c"Index invalid or out of range\00", align 1

; Function Attrs: nounwind uwtable
define internal ptr @spl_fixedarray_object_read_dimension_helper(ptr noundef %0, ptr noundef %1) #0 {
  %3 = alloca ptr, align 8
  %4 = alloca ptr, align 8
  %5 = alloca ptr, align 8
  %6 = alloca i64, align 8
  store ptr %0, ptr %4, align 8
  store ptr %1, ptr %5, align 8
  %7 = load ptr, ptr %5, align 8
  %8 = icmp ne ptr %7, null
  br i1 %8, label %10, label %9

9:                                                ; preds = %2
  call void (ptr, ptr, ...) @zend_throw_error(ptr noundef null, ptr noundef @.str.9)
  store ptr null, ptr %3, align 8
  br label %36

10:                                               ; preds = %2
  %11 = load ptr, ptr %5, align 8
  %12 = call i64 @spl_offset_convert_to_long(ptr noundef %11)
  store i64 %12, ptr %6, align 8
  %13 = load ptr, ptr getelementptr inbounds (%struct._zend_executor_globals, ptr @executor_globals, i32 0, i32 50), align 8
  %14 = icmp ne ptr %13, null
  br i1 %14, label %15, label %16

15:                                               ; preds = %10
  store ptr null, ptr %3, align 8
  br label %36

16:                                               ; preds = %10
  %17 = load i64, ptr %6, align 8
  %18 = icmp slt i64 %17, 0
  br i1 %18, label %26, label %19

19:                                               ; preds = %16
  %20 = load i64, ptr %6, align 8
  %21 = load ptr, ptr %4, align 8
  %22 = getelementptr inbounds %struct._spl_fixedarray_object, ptr %21, i32 0, i32 0
  %23 = getelementptr inbounds %struct._spl_fixedarray, ptr %22, i32 0, i32 0
  %24 = load i64, ptr %23, align 8
  %25 = icmp sge i64 %20, %24
  br i1 %25, label %26, label %29

26:                                               ; preds = %19, %16
  %27 = load ptr, ptr @spl_ce_OutOfBoundsException, align 8
  %28 = call ptr @zend_throw_exception(ptr noundef %27, ptr noundef @.str.10, i64 noundef 0)
  store ptr null, ptr %3, align 8
  br label %36

29:                                               ; preds = %19
  %30 = load ptr, ptr %4, align 8
  %31 = getelementptr inbounds %struct._spl_fixedarray_object, ptr %30, i32 0, i32 0
  %32 = getelementptr inbounds %struct._spl_fixedarray, ptr %31, i32 0, i32 1
  %33 = load ptr, ptr %32, align 8
  %34 = load i64, ptr %6, align 8
  %35 = getelementptr inbounds %struct._zval_struct, ptr %33, i64 %34
  store ptr %35, ptr %3, align 8
  br label %36

36:                                               ; preds = %29, %26, %15, %9
  %37 = load ptr, ptr %3, align 8
  ret ptr %37
}

; Function Attrs: nounwind uwtable
define internal ptr @spl_fixed_array_from_obj(ptr noundef %0) #0 {
  %2 = alloca ptr, align 8
  store ptr %0, ptr %2, align 8
  %3 = load ptr, ptr %2, align 8
  %4 = getelementptr inbounds i8, ptr %3, i64 -32
  ret ptr %4
}

; Function Attrs: nounwind uwtable
define hidden void @zim_SplFixedArray_offsetGet(ptr noundef %0, ptr noundef %1) #0 {
  %3 = alloca ptr, align 8
  %4 = alloca ptr, align 8
  %5 = alloca ptr, align 8
  %6 = alloca ptr, align 8
  %7 = alloca ptr, align 8
  %8 = alloca ptr, align 8
  %9 = alloca ptr, align 8
  %10 = alloca ptr, align 8
  %11 = alloca ptr, align 8
  %12 = alloca ptr, align 8
  %13 = alloca ptr, align 8
  %14 = alloca ptr, align 8
  %15 = alloca ptr, align 8
  %16 = alloca i32, align 4
  store ptr %0, ptr %7, align 8
  store ptr %1, ptr %8, align 8
  %17 = load ptr, ptr %7, align 8
  %18 = getelementptr inbounds %struct._zend_execute_data, ptr %17, i32 0, i32 4
  %19 = getelementptr inbounds %struct._zval_struct, ptr %18, i32 0, i32 2
  %20 = load i32, ptr %19, align 4
  %21 = call i32 (i32, ptr, ...) @zend_parse_parameters(i32 noundef %20, ptr noundef @.str.7, ptr noundef %9)
  %22 = icmp eq i32 %21, -1
  br i1 %22, label %23, label %28

23:                                               ; preds = %2
  br label %24

24:                                               ; preds = %23
  %25 = load ptr, ptr getelementptr inbounds (%struct._zend_executor_globals, ptr @executor_globals, i32 0, i32 50), align 8
  %26 = icmp ne ptr %25, null
  call void @llvm.assume(i1 %26)
  br label %125

27:                                               ; No predecessors!
  br label %28

28:                                               ; preds = %27, %2
  %29 = load ptr, ptr %7, align 8
  %30 = getelementptr inbounds %struct._zend_execute_data, ptr %29, i32 0, i32 4
  %31 = getelementptr inbounds %struct._zval_struct, ptr %30, i32 0, i32 0
  %32 = load ptr, ptr %31, align 8
  %33 = call ptr @spl_fixed_array_from_obj(ptr noundef %32)
  store ptr %33, ptr %11, align 8
  %34 = load ptr, ptr %11, align 8
  %35 = load ptr, ptr %9, align 8
  %36 = call ptr @spl_fixedarray_object_read_dimension_helper(ptr noundef %34, ptr noundef %35)
  store ptr %36, ptr %10, align 8
  %37 = load ptr, ptr %10, align 8
  %38 = icmp ne ptr %37, null
  br i1 %38, label %39, label %118

39:                                               ; preds = %28
  br label %40

40:                                               ; preds = %39
  br label %41

41:                                               ; preds = %40
  %42 = load ptr, ptr %10, align 8
  store ptr %42, ptr %12, align 8
  %43 = load ptr, ptr %12, align 8
  %44 = getelementptr inbounds %struct._zval_struct, ptr %43, i32 0, i32 1
  %45 = load i32, ptr %44, align 8
  %46 = and i32 %45, 65280
  %47 = icmp ne i32 %46, 0
  br i1 %47, label %48, label %97

48:                                               ; preds = %41
  %49 = load ptr, ptr %12, align 8
  %50 = getelementptr inbounds %struct._zval_struct, ptr %49, i32 0, i32 1
  %51 = load i32, ptr %50, align 8
  %52 = and i32 %51, 255
  %53 = icmp eq i32 %52, 10
  %54 = xor i1 %53, true
  %55 = xor i1 %54, true
  %56 = zext i1 %55 to i32
  %57 = sext i32 %56 to i64
  %58 = icmp ne i64 %57, 0
  br i1 %58, label %59, label %83

59:                                               ; preds = %48
  %60 = load ptr, ptr %12, align 8
  %61 = getelementptr inbounds %struct._zval_struct, ptr %60, i32 0, i32 0
  %62 = load ptr, ptr %61, align 8
  %63 = getelementptr inbounds %struct._zend_reference, ptr %62, i32 0, i32 1
  store ptr %63, ptr %12, align 8
  %64 = load ptr, ptr %12, align 8
  %65 = getelementptr inbounds %struct._zval_struct, ptr %64, i32 0, i32 1
  %66 = load i32, ptr %65, align 8
  %67 = and i32 %66, 65280
  %68 = icmp ne i32 %67, 0
  br i1 %68, label %69, label %82

69:                                               ; preds = %59
  %70 = load ptr, ptr %12, align 8
  store ptr %70, ptr %4, align 8
  %71 = load ptr, ptr %4, align 8
  %72 = getelementptr inbounds %struct._zval_struct, ptr %71, i32 0, i32 1
  %73 = getelementptr inbounds %struct.anon.0, ptr %72, i32 0, i32 1
  %74 = load i8, ptr %73, align 1
  %75 = zext i8 %74 to i32
  %76 = icmp ne i32 %75, 0
  call void @llvm.assume(i1 %76)
  %77 = load ptr, ptr %4, align 8
  %78 = load ptr, ptr %77, align 8
  store ptr %78, ptr %3, align 8
  %79 = load ptr, ptr %3, align 8
  %80 = load i32, ptr %79, align 4
  %81 = add i32 %80, 1
  store i32 %81, ptr %79, align 4
  br label %82

82:                                               ; preds = %69, %59
  br label %96

83:                                               ; preds = %48
  %84 = load ptr, ptr %12, align 8
  store ptr %84, ptr %6, align 8
  %85 = load ptr, ptr %6, align 8
  %86 = getelementptr inbounds %struct._zval_struct, ptr %85, i32 0, i32 1
  %87 = getelementptr inbounds %struct.anon.0, ptr %86, i32 0, i32 1
  %88 = load i8, ptr %87, align 1
  %89 = zext i8 %88 to i32
  %90 = icmp ne i32 %89, 0
  call void @llvm.assume(i1 %90)
  %91 = load ptr, ptr %6, align 8
  %92 = load ptr, ptr %91, align 8
  store ptr %92, ptr %5, align 8
  %93 = load ptr, ptr %5, align 8
  %94 = load i32, ptr %93, align 4
  %95 = add i32 %94, 1
  store i32 %95, ptr %93, align 4
  br label %96

96:                                               ; preds = %83, %82
  br label %97

97:                                               ; preds = %96, %41
  br label %98

98:                                               ; preds = %97
  %99 = load ptr, ptr %8, align 8
  store ptr %99, ptr %13, align 8
  %100 = load ptr, ptr %12, align 8
  store ptr %100, ptr %14, align 8
  %101 = load ptr, ptr %14, align 8
  %102 = getelementptr inbounds %struct._zval_struct, ptr %101, i32 0, i32 0
  %103 = load ptr, ptr %102, align 8
  store ptr %103, ptr %15, align 8
  %104 = load ptr, ptr %14, align 8
  %105 = getelementptr inbounds %struct._zval_struct, ptr %104, i32 0, i32 1
  %106 = load i32, ptr %105, align 8
  store i32 %106, ptr %16, align 4
  br label %107

107:                                              ; preds = %98
  %108 = load ptr, ptr %15, align 8
  %109 = load ptr, ptr %13, align 8
  %110 = getelementptr inbounds %struct._zval_struct, ptr %109, i32 0, i32 0
  store ptr %108, ptr %110, align 8
  %111 = load i32, ptr %16, align 4
  %112 = load ptr, ptr %13, align 8
  %113 = getelementptr inbounds %struct._zval_struct, ptr %112, i32 0, i32 1
  store i32 %111, ptr %113, align 8
  br label %114

114:                                              ; preds = %107
  br label %115

115:                                              ; preds = %114
  br label %116

116:                                              ; preds = %115
  br label %125

117:                                              ; No predecessors!
  br label %125

118:                                              ; preds = %28
  br label %119

119:                                              ; preds = %118
  br label %120

120:                                              ; preds = %119
  %121 = load ptr, ptr %8, align 8
  %122 = getelementptr inbounds %struct._zval_struct, ptr %121, i32 0, i32 1
  store i32 1, ptr %122, align 8
  br label %123

123:                                              ; preds = %120
  br label %125

124:                                              ; No predecessors!
  br label %125

125:                                              ; preds = %124, %123, %117, %116, %24
  ret void
}