; Function Attrs: nounwind uwtable
define hidden void @zim_SplFixedArray_offsetGet(ptr nocapture noundef readonly %0, ptr nocapture noundef writeonly %1) #0 {
  %3 = alloca ptr, align 8
  %4 = getelementptr inbounds i8, ptr %0, i64 44
  %5 = load i32, ptr %4, align 4
  %6 = call i32 (i32, ptr, ...) @zend_parse_parameters(i32 noundef %5, ptr noundef nonnull @.str.7, ptr noundef nonnull %3) #12
  %7 = icmp eq i32 %6, -1
  br i1 %7, label %8, label %11

8:                                                ; preds = %2
  %9 = load ptr, ptr getelementptr inbounds (%struct._zend_executor_globals, ptr @executor_globals, i64 0, i32 50), align 8
  %10 = icmp ne ptr %9, null
  call void @llvm.assume(i1 %10)
  br label %54

11:                                               ; preds = %2
  %12 = getelementptr inbounds i8, ptr %0, i64 32
  %13 = load ptr, ptr %12, align 8
  %14 = getelementptr inbounds i8, ptr %13, i64 -32
  %15 = load ptr, ptr %3, align 8
  %.not.i = icmp eq ptr %15, null
  br i1 %.not.i, label %16, label %17

16:                                               ; preds = %11
  call void (ptr, ptr, ...) @zend_throw_error(ptr noundef null, ptr noundef nonnull @.str.9) #12
  br label %spl_fixedarray_object_read_dimension_helper.exit.thread

17:                                               ; preds = %11
  %18 = call fastcc i64 @spl_offset_convert_to_long(ptr noundef nonnull %15)
  %19 = load ptr, ptr getelementptr inbounds (%struct._zend_executor_globals, ptr @executor_globals, i64 0, i32 50), align 8
  %.not9.i = icmp eq ptr %19, null
  br i1 %.not9.i, label %20, label %spl_fixedarray_object_read_dimension_helper.exit.thread

20:                                               ; preds = %17
  %21 = icmp slt i64 %18, 0
  br i1 %21, label %24, label %22

22:                                               ; preds = %20
  %23 = load i64, ptr %14, align 8
  %.not10.i = icmp slt i64 %18, %23
  br i1 %.not10.i, label %spl_fixedarray_object_read_dimension_helper.exit, label %24

24:                                               ; preds = %22, %20
  %25 = load ptr, ptr @spl_ce_OutOfBoundsException, align 8
  %26 = call ptr @zend_throw_exception(ptr noundef %25, ptr noundef nonnull @.str.10, i64 noundef 0) #12
  br label %spl_fixedarray_object_read_dimension_helper.exit.thread

spl_fixedarray_object_read_dimension_helper.exit: ; preds = %22
  %27 = getelementptr inbounds i8, ptr %13, i64 -24
  %28 = load ptr, ptr %27, align 8
  %29 = getelementptr inbounds %struct._zval_struct, ptr %28, i64 %18
  %.not = icmp eq ptr %28, null
  br i1 %.not, label %spl_fixedarray_object_read_dimension_helper.exit.thread, label %30

30:                                               ; preds = %spl_fixedarray_object_read_dimension_helper.exit
  %31 = getelementptr inbounds i8, ptr %29, i64 8
  %32 = load i32, ptr %31, align 8
  %33 = and i32 %32, 65280
  %.not26 = icmp eq i32 %33, 0
  br i1 %.not26, label %48, label %34

34:                                               ; preds = %30
  %35 = and i32 %32, 255
  %36 = icmp eq i32 %35, 10
  br i1 %36, label %37, label %.sink.split

37:                                               ; preds = %34
  %38 = load ptr, ptr %29, align 8
  %39 = getelementptr inbounds i8, ptr %38, i64 8
  %40 = getelementptr inbounds i8, ptr %38, i64 16
  %41 = load i32, ptr %40, align 8
  %42 = and i32 %41, 65280
  %.not27 = icmp eq i32 %42, 0
  br i1 %.not27, label %48, label %.sink.split

.sink.split:                                      ; preds = %34, %37
  %.sink = phi i32 [ %41, %37 ], [ %32, %34 ]
  %.sink32 = phi ptr [ %39, %37 ], [ %29, %34 ]
  %43 = and i32 %.sink, 65280
  %44 = icmp ne i32 %43, 0
  call void @llvm.assume(i1 %44)
  %45 = load ptr, ptr %.sink32, align 8
  %46 = load i32, ptr %45, align 4
  %47 = add i32 %46, 1
  store i32 %47, ptr %45, align 4
  br label %48

48:                                               ; preds = %.sink.split, %30, %37
  %.0 = phi ptr [ %39, %37 ], [ %29, %30 ], [ %.sink32, %.sink.split ]
  %49 = load ptr, ptr %.0, align 8
  %50 = getelementptr inbounds i8, ptr %.0, i64 8
  %51 = load i32, ptr %50, align 8
  store ptr %49, ptr %1, align 8
  %52 = getelementptr inbounds i8, ptr %1, i64 8
  store i32 %51, ptr %52, align 8
  br label %54

spl_fixedarray_object_read_dimension_helper.exit.thread: ; preds = %17, %16, %24, %spl_fixedarray_object_read_dimension_helper.exit
  %53 = getelementptr inbounds i8, ptr %1, i64 8
  store i32 1, ptr %53, align 8
  br label %54

54:                                               ; preds = %spl_fixedarray_object_read_dimension_helper.exit.thread, %48, %8
  ret void
}